target datalayout = "e-m:e-p270:32:32-p271:32:32-p272:64:64-i64:64-i128:128-f80:128-n8:16:32:64-S128"
target triple = "x86_64-pc-linux-gnu"

%struct.ident_t = type { i32, i32, i32, i32, ptr }
%struct.Qureg = type { i32, i32, i32, i64, i64, i32, i32, %struct.ComplexArray, %struct.ComplexArray, %struct.ComplexArray, ptr, ptr, ptr, ptr, ptr, ptr }
%struct.ComplexArray = type { ptr, ptr }

@1 = private unnamed_addr constant %struct.ident_t { i32 0, i32 514, i32 0, i32 22, ptr @0 }, align 8
@2 = private unnamed_addr constant %struct.ident_t { i32 0, i32 66, i32 0, i32 22, ptr @0 }, align 8

; Function Attrs: alwaysinline norecurse nounwind uwtable
define internal void @densmatr_mixTwoQubitDepolarisingLocalPart1.omp_outlined(ptr noalias noundef %0, ptr noalias noundef %1, ptr noundef nonnull align 8 dereferenceable(8) %2, ptr noundef nonnull align 8 dereferenceable(136) %3, ptr noundef nonnull align 8 dereferenceable(8) %4, ptr noundef nonnull align 8 dereferenceable(8) %5, ptr noundef nonnull align 8 dereferenceable(8) %6) #2 {
  %8 = alloca ptr, align 8
  %9 = alloca ptr, align 8
  %10 = alloca ptr, align 8
  %11 = alloca ptr, align 8
  %12 = alloca ptr, align 8
  %13 = alloca ptr, align 8
  %14 = alloca ptr, align 8
  %15 = alloca i64, align 8
  %16 = alloca i64, align 8
  %17 = alloca i64, align 8
  %18 = alloca double, align 8
  %19 = alloca double, align 8
  %20 = alloca i64, align 8
  %21 = alloca i64, align 8
  %22 = alloca i64, align 8
  %23 = alloca i64, align 8
  %24 = alloca i64, align 8
  %25 = alloca i64, align 8
  %26 = alloca i64, align 8
  %27 = alloca i32, align 4
  %28 = alloca i64, align 8
  store ptr %0, ptr %8, align 8, !tbaa !19
  store ptr %1, ptr %9, align 8, !tbaa !19
  store ptr %2, ptr %10, align 8, !tbaa !21
  store ptr %3, ptr %11, align 8, !tbaa !23
  store ptr %4, ptr %12, align 8, !tbaa !21
  store ptr %5, ptr %13, align 8, !tbaa !21
  store ptr %6, ptr %14, align 8, !tbaa !25
  %29 = load ptr, ptr %10, align 8, !tbaa !21
  %30 = load ptr, ptr %11, align 8, !tbaa !23
  %31 = load ptr, ptr %12, align 8, !tbaa !21
  %32 = load ptr, ptr %13, align 8, !tbaa !21
  %33 = load ptr, ptr %14, align 8, !tbaa !25
  call void @llvm.lifetime.start.p0(i64 8, ptr %15) #3
  call void @llvm.lifetime.start.p0(i64 8, ptr %16) #3
  call void @llvm.lifetime.start.p0(i64 8, ptr %17) #3
  call void @llvm.lifetime.start.p0(i64 8, ptr %18) #3
  call void @llvm.lifetime.start.p0(i64 8, ptr %19) #3
  call void @llvm.lifetime.start.p0(i64 8, ptr %20) #3
  call void @llvm.lifetime.start.p0(i64 8, ptr %21) #3
  %34 = load i64, ptr %29, align 8, !tbaa !4
  store i64 %34, ptr %21, align 8, !tbaa !4
  call void @llvm.lifetime.start.p0(i64 8, ptr %22) #3
  %35 = load i64, ptr %21, align 8, !tbaa !4
  %36 = sub nsw i64 %35, 0
  %37 = sdiv i64 %36, 1
  %38 = sub nsw i64 %37, 1
  store i64 %38, ptr %22, align 8, !tbaa !4
  call void @llvm.lifetime.start.p0(i64 8, ptr %23) #3
  store i64 0, ptr %23, align 8, !tbaa !4
  call void @llvm.lifetime.end.p0(i64 8, ptr %23) #3
  %39 = load i64, ptr %21, align 8, !tbaa !4
  %40 = icmp slt i64 0, %39
  br i1 %40, label %41, label %184

41:                                               ; preds = %7
  call void @llvm.lifetime.start.p0(i64 8, ptr %24) #3
  store i64 0, ptr %24, align 8, !tbaa !4
  call void @llvm.lifetime.start.p0(i64 8, ptr %25) #3
  %42 = load i64, ptr %22, align 8, !tbaa !4
  store i64 %42, ptr %25, align 8, !tbaa !4
  call void @llvm.lifetime.start.p0(i64 8, ptr %26) #3
  store i64 1, ptr %26, align 8, !tbaa !4
  call void @llvm.lifetime.start.p0(i64 4, ptr %27) #3
  store i32 0, ptr %27, align 4, !tbaa !8
  call void @llvm.lifetime.start.p0(i64 8, ptr %28) #3
  %43 = load ptr, ptr %8, align 8
  %44 = load i32, ptr %43, align 4, !tbaa !8
  call void @__kmpc_for_static_init_8(ptr @1, i32 %44, i32 34, ptr %27, ptr %24, ptr %25, ptr %26, i64 1, i64 1)
  %45 = load i64, ptr %25, align 8, !tbaa !4
  %46 = load i64, ptr %22, align 8, !tbaa !4
  %47 = icmp sgt i64 %45, %46
  br i1 %47, label %48, label %50

48:                                               ; preds = %41
  %49 = load i64, ptr %22, align 8, !tbaa !4
  br label %52

50:                                               ; preds = %41
  %51 = load i64, ptr %25, align 8, !tbaa !4
  br label %52

52:                                               ; preds = %50, %48
  %53 = phi i64 [ %49, %48 ], [ %51, %50 ]
  store i64 %53, ptr %25, align 8, !tbaa !4
  %54 = load i64, ptr %24, align 8, !tbaa !4
  store i64 %54, ptr %20, align 8, !tbaa !4
  br label %55

55:                                               ; preds = %177, %52
  %56 = load i64, ptr %20, align 8, !tbaa !4
  %57 = load i64, ptr %25, align 8, !tbaa !4
  %58 = icmp sle i64 %56, %57
  br i1 %58, label %60, label %59

59:                                               ; preds = %55
  br label %180

60:                                               ; preds = %55
  %61 = load i64, ptr %20, align 8, !tbaa !4
  %62 = mul nsw i64 %61, 1
  %63 = add nsw i64 0, %62
  store i64 %63, ptr %28, align 8, !tbaa !4
  %64 = load i64, ptr %28, align 8, !tbaa !4
  %65 = getelementptr inbounds nuw %struct.Qureg, ptr %30, i32 0, i32 3
  %66 = load i64, ptr %65, align 8, !tbaa !12
  %67 = getelementptr inbounds nuw %struct.Qureg, ptr %30, i32 0, i32 5
  %68 = load i32, ptr %67, align 8, !tbaa !26
  %69 = sext i32 %68 to i64
  %70 = mul nsw i64 %66, %69
  %71 = add nsw i64 %64, %70
  %72 = load i64, ptr %31, align 8, !tbaa !4
  %73 = and i64 %71, %72
  store i64 %73, ptr %16, align 8, !tbaa !4
  %74 = load i64, ptr %28, align 8, !tbaa !4
  %75 = getelementptr inbounds nuw %struct.Qureg, ptr %30, i32 0, i32 3
  %76 = load i64, ptr %75, align 8, !tbaa !12
  %77 = getelementptr inbounds nuw %struct.Qureg, ptr %30, i32 0, i32 5
  %78 = load i32, ptr %77, align 8, !tbaa !26
  %79 = sext i32 %78 to i64
  %80 = mul nsw i64 %76, %79
  %81 = add nsw i64 %74, %80
  %82 = load i64, ptr %32, align 8, !tbaa !4
  %83 = and i64 %81, %82
  store i64 %83, ptr %17, align 8, !tbaa !4
  %84 = load i64, ptr %16, align 8, !tbaa !4
  %85 = icmp eq i64 %84, 0
  br i1 %85, label %86, label %175

86:                                               ; preds = %60
  %87 = load i64, ptr %17, align 8, !tbaa !4
  %88 = icmp eq i64 %87, 0
  br i1 %88, label %93, label %89

89:                                               ; preds = %86
  %90 = load i64, ptr %17, align 8, !tbaa !4
  %91 = load i64, ptr %32, align 8, !tbaa !4
  %92 = icmp eq i64 %90, %91
  br i1 %92, label %93, label %175

93:                                               ; preds = %89, %86
  %94 = load i64, ptr %28, align 8, !tbaa !4
  %95 = load i64, ptr %31, align 8, !tbaa !4
  %96 = or i64 %94, %95
  store i64 %96, ptr %15, align 8, !tbaa !4
  %97 = getelementptr inbounds nuw %struct.Qureg, ptr %30, i32 0, i32 7
  %98 = getelementptr inbounds nuw %struct.ComplexArray, ptr %97, i32 0, i32 0
  %99 = load ptr, ptr %98, align 8, !tbaa !27
  %100 = load i64, ptr %28, align 8, !tbaa !4
  %101 = getelementptr inbounds double, ptr %99, i64 %100
  %102 = load double, ptr %101, align 8, !tbaa !10
  store double %102, ptr %18, align 8, !tbaa !10
  %103 = getelementptr inbounds nuw %struct.Qureg, ptr %30, i32 0, i32 7
  %104 = getelementptr inbounds nuw %struct.ComplexArray, ptr %103, i32 0, i32 1
  %105 = load ptr, ptr %104, align 8, !tbaa !28
  %106 = load i64, ptr %28, align 8, !tbaa !4
  %107 = getelementptr inbounds double, ptr %105, i64 %106
  %108 = load double, ptr %107, align 8, !tbaa !10
  store double %108, ptr %19, align 8, !tbaa !10
  %109 = getelementptr inbounds nuw %struct.Qureg, ptr %30, i32 0, i32 7
  %110 = getelementptr inbounds nuw %struct.ComplexArray, ptr %109, i32 0, i32 0
  %111 = load ptr, ptr %110, align 8, !tbaa !27
  %112 = load i64, ptr %28, align 8, !tbaa !4
  %113 = getelementptr inbounds double, ptr %111, i64 %112
  %114 = load double, ptr %113, align 8, !tbaa !10
  %115 = load double, ptr %33, align 8, !tbaa !10
  %116 = getelementptr inbounds nuw %struct.Qureg, ptr %30, i32 0, i32 7
  %117 = getelementptr inbounds nuw %struct.ComplexArray, ptr %116, i32 0, i32 0
  %118 = load ptr, ptr %117, align 8, !tbaa !27
  %119 = load i64, ptr %15, align 8, !tbaa !4
  %120 = getelementptr inbounds double, ptr %118, i64 %119
  %121 = load double, ptr %120, align 8, !tbaa !10
  %122 = call double @llvm.fmuladd.f64(double %115, double %121, double %114)
  %123 = getelementptr inbounds nuw %struct.Qureg, ptr %30, i32 0, i32 7
  %124 = getelementptr inbounds nuw %struct.ComplexArray, ptr %123, i32 0, i32 0
  %125 = load ptr, ptr %124, align 8, !tbaa !27
  %126 = load i64, ptr %28, align 8, !tbaa !4
  %127 = getelementptr inbounds double, ptr %125, i64 %126
  store double %122, ptr %127, align 8, !tbaa !10
  %128 = getelementptr inbounds nuw %struct.Qureg, ptr %30, i32 0, i32 7
  %129 = getelementptr inbounds nuw %struct.ComplexArray, ptr %128, i32 0, i32 1
  %130 = load ptr, ptr %129, align 8, !tbaa !28
  %131 = load i64, ptr %28, align 8, !tbaa !4
  %132 = getelementptr inbounds double, ptr %130, i64 %131
  %133 = load double, ptr %132, align 8, !tbaa !10
  %134 = load double, ptr %33, align 8, !tbaa !10
  %135 = getelementptr inbounds nuw %struct.Qureg, ptr %30, i32 0, i32 7
  %136 = getelementptr inbounds nuw %struct.ComplexArray, ptr %135, i32 0, i32 1
  %137 = load ptr, ptr %136, align 8, !tbaa !28
  %138 = load i64, ptr %15, align 8, !tbaa !4
  %139 = getelementptr inbounds double, ptr %137, i64 %138
  %140 = load double, ptr %139, align 8, !tbaa !10
  %141 = call double @llvm.fmuladd.f64(double %134, double %140, double %133)
  %142 = getelementptr inbounds nuw %struct.Qureg, ptr %30, i32 0, i32 7
  %143 = getelementptr inbounds nuw %struct.ComplexArray, ptr %142, i32 0, i32 1
  %144 = load ptr, ptr %143, align 8, !tbaa !28
  %145 = load i64, ptr %28, align 8, !tbaa !4
  %146 = getelementptr inbounds double, ptr %144, i64 %145
  store double %141, ptr %146, align 8, !tbaa !10
  %147 = getelementptr inbounds nuw %struct.Qureg, ptr %30, i32 0, i32 7
  %148 = getelementptr inbounds nuw %struct.ComplexArray, ptr %147, i32 0, i32 0
  %149 = load ptr, ptr %148, align 8, !tbaa !27
  %150 = load i64, ptr %15, align 8, !tbaa !4
  %151 = getelementptr inbounds double, ptr %149, i64 %150
  %152 = load double, ptr %151, align 8, !tbaa !10
  %153 = load double, ptr %33, align 8, !tbaa !10
  %154 = load double, ptr %18, align 8, !tbaa !10
  %155 = call double @llvm.fmuladd.f64(double %153, double %154, double %152)
  %156 = getelementptr inbounds nuw %struct.Qureg, ptr %30, i32 0, i32 7
  %157 = getelementptr inbounds nuw %struct.ComplexArray, ptr %156, i32 0, i32 0
  %158 = load ptr, ptr %157, align 8, !tbaa !27
  %159 = load i64, ptr %15, align 8, !tbaa !4
  %160 = getelementptr inbounds double, ptr %158, i64 %159
  store double %155, ptr %160, align 8, !tbaa !10
  %161 = getelementptr inbounds nuw %struct.Qureg, ptr %30, i32 0, i32 7
  %162 = getelementptr inbounds nuw %struct.ComplexArray, ptr %161, i32 0, i32 1
  %163 = load ptr, ptr %162, align 8, !tbaa !28
  %164 = load i64, ptr %15, align 8, !tbaa !4
  %165 = getelementptr inbounds double, ptr %163, i64 %164
  %166 = load double, ptr %165, align 8, !tbaa !10
  %167 = load double, ptr %33, align 8, !tbaa !10
  %168 = load double, ptr %19, align 8, !tbaa !10
  %169 = call double @llvm.fmuladd.f64(double %167, double %168, double %166)
  %170 = getelementptr inbounds nuw %struct.Qureg, ptr %30, i32 0, i32 7
  %171 = getelementptr inbounds nuw %struct.ComplexArray, ptr %170, i32 0, i32 1
  %172 = load ptr, ptr %171, align 8, !tbaa !28
  %173 = load i64, ptr %15, align 8, !tbaa !4
  %174 = getelementptr inbounds double, ptr %172, i64 %173
  store double %169, ptr %174, align 8, !tbaa !10
  br label %175

175:                                              ; preds = %93, %89, %60
  br label %176

176:                                              ; preds = %175
  br label %177

177:                                              ; preds = %176
  %178 = load i64, ptr %20, align 8, !tbaa !4
  %179 = add nsw i64 %178, 1
  store i64 %179, ptr %20, align 8, !tbaa !4
  br label %55

180:                                              ; preds = %59
  br label %181

181:                                              ; preds = %180
  %182 = load ptr, ptr %8, align 8
  %183 = load i32, ptr %182, align 4, !tbaa !8
  call void @__kmpc_for_static_fini(ptr @1, i32 %183)
  call void @llvm.lifetime.end.p0(i64 8, ptr %28) #3
  call void @llvm.lifetime.end.p0(i64 4, ptr %27) #3
  call void @llvm.lifetime.end.p0(i64 8, ptr %26) #3
  call void @llvm.lifetime.end.p0(i64 8, ptr %25) #3
  call void @llvm.lifetime.end.p0(i64 8, ptr %24) #3
  br label %184

184:                                              ; preds = %181, %7
  call void @llvm.lifetime.end.p0(i64 8, ptr %22) #3
  call void @llvm.lifetime.end.p0(i64 8, ptr %21) #3
  call void @llvm.lifetime.end.p0(i64 8, ptr %20) #3
  %185 = load ptr, ptr %8, align 8
  %186 = load i32, ptr %185, align 4, !tbaa !8
  call void @__kmpc_barrier(ptr @2, i32 %186)
  call void @llvm.lifetime.end.p0(i64 8, ptr %19) #3
  call void @llvm.lifetime.end.p0(i64 8, ptr %18) #3
  call void @llvm.lifetime.end.p0(i64 8, ptr %17) #3
  call void @llvm.lifetime.end.p0(i64 8, ptr %16) #3
  call void @llvm.lifetime.end.p0(i64 8, ptr %15) #3
  ret void
}