; Function Attrs: alwaysinline norecurse nounwind uwtable
define internal void @densmatr_mixTwoQubitDepolarisingLocalPart1.omp_outlined(ptr noalias noundef readonly captures(none) %0, ptr noalias readnone captures(none) %1, ptr noundef nonnull readonly align 8 captures(none) dereferenceable(8) %2, ptr noundef nonnull readonly align 8 captures(none) dereferenceable(136) %3, ptr noundef nonnull readonly align 8 captures(none) dereferenceable(8) %4, ptr noundef nonnull readonly align 8 captures(none) dereferenceable(8) %5, ptr noundef nonnull readonly align 8 captures(none) dereferenceable(8) %6) #3 {
  %8 = alloca i64, align 8
  %9 = alloca i64, align 8
  %10 = alloca i64, align 8
  %11 = alloca i32, align 4
  %12 = load i64, ptr %2, align 8, !tbaa !16
  %13 = icmp sgt i64 %12, 0
  %.pre = load i32, ptr %0, align 4, !tbaa !18
  br i1 %13, label %14, label %62

14:                                               ; preds = %7
  %15 = add nsw i64 %12, -1
  call void @llvm.lifetime.start.p0(i64 8, ptr nonnull %8) #4
  store i64 0, ptr %8, align 8, !tbaa !16
  call void @llvm.lifetime.start.p0(i64 8, ptr nonnull %9) #4
  store i64 %15, ptr %9, align 8, !tbaa !16
  call void @llvm.lifetime.start.p0(i64 8, ptr nonnull %10) #4
  store i64 1, ptr %10, align 8, !tbaa !16
  call void @llvm.lifetime.start.p0(i64 4, ptr nonnull %11) #4
  store i32 0, ptr %11, align 4, !tbaa !18
  call void @__kmpc_for_static_init_8(ptr nonnull @1, i32 %.pre, i32 34, ptr nonnull %11, ptr nonnull %8, ptr nonnull %9, ptr nonnull %10, i64 1, i64 1)
  %16 = load i64, ptr %9, align 8, !tbaa !16
  %17 = call i64 @llvm.smin.i64(i64 %16, i64 %15)
  store i64 %17, ptr %9, align 8, !tbaa !16
  %18 = load i64, ptr %8, align 8, !tbaa !16
  %.not36 = icmp sgt i64 %18, %17
  br i1 %.not36, label %._crit_edge, label %.lr.ph

.lr.ph:                                           ; preds = %14
  %19 = getelementptr inbounds nuw i8, ptr %3, i64 16
  %20 = load i64, ptr %19, align 8, !tbaa !8
  %21 = getelementptr inbounds nuw i8, ptr %3, i64 32
  %22 = load i32, ptr %21, align 8, !tbaa !19
  %23 = sext i32 %22 to i64
  %24 = mul nsw i64 %20, %23
  %25 = load i64, ptr %4, align 8, !tbaa !16
  %26 = load i64, ptr %5, align 8
  %27 = getelementptr inbounds nuw i8, ptr %3, i64 40
  %28 = load ptr, ptr %27, align 8
  %29 = getelementptr inbounds nuw i8, ptr %3, i64 48
  %30 = load ptr, ptr %29, align 8
  br label %31

31:                                               ; preds = %.lr.ph, %60
  %.037 = phi i64 [ %18, %.lr.ph ], [ %61, %60 ]
  %32 = add nsw i64 %24, %.037
  %33 = and i64 %32, %25
  %34 = icmp eq i64 %33, 0
  br i1 %34, label %35, label %60

35:                                               ; preds = %31
  %36 = and i64 %26, %32
  %37 = icmp eq i64 %36, 0
  %38 = icmp eq i64 %36, %26
  %or.cond = or i1 %37, %38
  br i1 %or.cond, label %39, label %60

39:                                               ; preds = %35
  %40 = or i64 %25, %.037
  %41 = getelementptr inbounds double, ptr %28, i64 %.037
  %42 = load double, ptr %41, align 8, !tbaa !4
  %43 = getelementptr inbounds double, ptr %30, i64 %.037
  %44 = load double, ptr %43, align 8, !tbaa !4
  %45 = load double, ptr %6, align 8, !tbaa !4
  %46 = getelementptr inbounds double, ptr %28, i64 %40
  %47 = load double, ptr %46, align 8, !tbaa !4
  %48 = call double @llvm.fmuladd.f64(double %45, double %47, double %42)
  store double %48, ptr %41, align 8, !tbaa !4
  %49 = load double, ptr %43, align 8, !tbaa !4
  %50 = load double, ptr %6, align 8, !tbaa !4
  %51 = getelementptr inbounds double, ptr %30, i64 %40
  %52 = load double, ptr %51, align 8, !tbaa !4
  %53 = call double @llvm.fmuladd.f64(double %50, double %52, double %49)
  store double %53, ptr %43, align 8, !tbaa !4
  %54 = load double, ptr %46, align 8, !tbaa !4
  %55 = load double, ptr %6, align 8, !tbaa !4
  %56 = call double @llvm.fmuladd.f64(double %55, double %42, double %54)
  store double %56, ptr %46, align 8, !tbaa !4
  %57 = load double, ptr %51, align 8, !tbaa !4
  %58 = load double, ptr %6, align 8, !tbaa !4
  %59 = call double @llvm.fmuladd.f64(double %58, double %44, double %57)
  store double %59, ptr %51, align 8, !tbaa !4
  br label %60

60:                                               ; preds = %35, %39, %31
  %61 = add i64 %.037, 1
  %exitcond.not = icmp eq i64 %.037, %17
  br i1 %exitcond.not, label %._crit_edge, label %31

._crit_edge:                                      ; preds = %60, %14
  call void @__kmpc_for_static_fini(ptr nonnull @1, i32 %.pre)
  call void @llvm.lifetime.end.p0(i64 4, ptr nonnull %11) #4
  call void @llvm.lifetime.end.p0(i64 8, ptr nonnull %10) #4
  call void @llvm.lifetime.end.p0(i64 8, ptr nonnull %9) #4
  call void @llvm.lifetime.end.p0(i64 8, ptr nonnull %8) #4
  br label %62

62:                                               ; preds = %._crit_edge, %7
  call void @__kmpc_barrier(ptr nonnull @2, i32 %.pre)
  ret void
}